ARM GAS  C:\Users\nicol\AppData\Local\Temp\cchJ9jMi.s 			page 1


   1              		.cpu cortex-m4
   2              		.eabi_attribute 27, 1
   3              		.eabi_attribute 28, 1
   4              		.eabi_attribute 20, 1
   5              		.eabi_attribute 21, 1
   6              		.eabi_attribute 23, 3
   7              		.eabi_attribute 24, 1
   8              		.eabi_attribute 25, 1
   9              		.eabi_attribute 26, 1
  10              		.eabi_attribute 30, 1
  11              		.eabi_attribute 34, 1
  12              		.eabi_attribute 18, 4
  13              		.file	"main.c"
  14              		.text
  15              	.Ltext0:
  16              		.cfi_sections	.debug_frame
  17              		.section	.text.MX_GPIO_Init,"ax",%progbits
  18              		.align	1
  19              		.arch armv7e-m
  20              		.syntax unified
  21              		.thumb
  22              		.thumb_func
  23              		.fpu fpv4-sp-d16
  25              	MX_GPIO_Init:
  26              	.LFB132:
  27              		.file 1 "Src/main.c"
   1:Src/main.c    **** /* USER CODE BEGIN Header */
   2:Src/main.c    **** /**
   3:Src/main.c    ****   ******************************************************************************
   4:Src/main.c    ****   * @file           : main.c
   5:Src/main.c    ****   * @brief          : Main program body
   6:Src/main.c    ****   ******************************************************************************
   7:Src/main.c    ****   * @attention
   8:Src/main.c    ****   *
   9:Src/main.c    ****   * Copyright (c) 2023 STMicroelectronics.
  10:Src/main.c    ****   * All rights reserved.
  11:Src/main.c    ****   *
  12:Src/main.c    ****   * This software is licensed under terms that can be found in the LICENSE file
  13:Src/main.c    ****   * in the root directory of this software component.
  14:Src/main.c    ****   * If no LICENSE file comes with this software, it is provided AS-IS.
  15:Src/main.c    ****   *
  16:Src/main.c    ****   ******************************************************************************
  17:Src/main.c    ****   */
  18:Src/main.c    **** /* USER CODE END Header */
  19:Src/main.c    **** /* Includes ------------------------------------------------------------------*/
  20:Src/main.c    **** #include "main.h"
  21:Src/main.c    **** 
  22:Src/main.c    **** /* Private includes ----------------------------------------------------------*/
  23:Src/main.c    **** /* USER CODE BEGIN Includes */
  24:Src/main.c    **** #define STM32F410Rx
  25:Src/main.c    **** #include <stdint.h>
  26:Src/main.c    **** #include "stm32f4xx.h"
  27:Src/main.c    **** /* USER CODE END Includes */
  28:Src/main.c    **** 
  29:Src/main.c    **** /* Private typedef -----------------------------------------------------------*/
  30:Src/main.c    **** /* USER CODE BEGIN PTD */
  31:Src/main.c    **** 
ARM GAS  C:\Users\nicol\AppData\Local\Temp\cchJ9jMi.s 			page 2


  32:Src/main.c    **** /* USER CODE END PTD */
  33:Src/main.c    **** 
  34:Src/main.c    **** /* Private define ------------------------------------------------------------*/
  35:Src/main.c    **** /* USER CODE BEGIN PD */
  36:Src/main.c    **** /* USER CODE END PD */
  37:Src/main.c    **** 
  38:Src/main.c    **** /* Private macro -------------------------------------------------------------*/
  39:Src/main.c    **** /* USER CODE BEGIN PM */
  40:Src/main.c    **** 
  41:Src/main.c    **** /* USER CODE END PM */
  42:Src/main.c    **** 
  43:Src/main.c    **** /* Private variables ---------------------------------------------------------*/
  44:Src/main.c    **** 
  45:Src/main.c    **** /* USER CODE BEGIN PV */
  46:Src/main.c    **** 
  47:Src/main.c    **** /* USER CODE END PV */
  48:Src/main.c    **** 
  49:Src/main.c    **** /* Private function prototypes -----------------------------------------------*/
  50:Src/main.c    **** void SystemClock_Config(void);
  51:Src/main.c    **** static void MX_GPIO_Init(void);
  52:Src/main.c    **** /* USER CODE BEGIN PFP */
  53:Src/main.c    **** 
  54:Src/main.c    **** /* USER CODE END PFP */
  55:Src/main.c    **** 
  56:Src/main.c    **** /* Private user code ---------------------------------------------------------*/
  57:Src/main.c    **** /* USER CODE BEGIN 0 */
  58:Src/main.c    **** volatile int ledFlag = 0;
  59:Src/main.c    **** 
  60:Src/main.c    **** /* USER CODE END 0 */
  61:Src/main.c    **** 
  62:Src/main.c    **** /**
  63:Src/main.c    ****   * @brief  The application entry point.
  64:Src/main.c    ****   * @retval int
  65:Src/main.c    ****   */
  66:Src/main.c    **** int main(void)
  67:Src/main.c    **** {
  68:Src/main.c    ****   /* USER CODE BEGIN 1 */
  69:Src/main.c    **** 
  70:Src/main.c    ****   /* USER CODE END 1 */
  71:Src/main.c    **** 
  72:Src/main.c    ****   /* MCU Configuration--------------------------------------------------------*/
  73:Src/main.c    **** 
  74:Src/main.c    ****   /* Reset of all peripherals, Initializes the Flash interface and the Systick. */
  75:Src/main.c    ****   HAL_Init();
  76:Src/main.c    **** 
  77:Src/main.c    ****   /* USER CODE BEGIN Init */
  78:Src/main.c    **** 
  79:Src/main.c    ****   /* USER CODE END Init */
  80:Src/main.c    **** 
  81:Src/main.c    ****   /* Configure the system clock */
  82:Src/main.c    ****   SystemClock_Config();
  83:Src/main.c    **** 
  84:Src/main.c    ****   /* USER CODE BEGIN SysInit */
  85:Src/main.c    **** 
  86:Src/main.c    ****   /* USER CODE END SysInit */
  87:Src/main.c    **** 
  88:Src/main.c    ****   /* Initialize all configured peripherals */
ARM GAS  C:\Users\nicol\AppData\Local\Temp\cchJ9jMi.s 			page 3


  89:Src/main.c    ****   MX_GPIO_Init();
  90:Src/main.c    ****   /* USER CODE BEGIN 2 */
  91:Src/main.c    **** 
  92:Src/main.c    ****   /* USER CODE END 2 */
  93:Src/main.c    **** 
  94:Src/main.c    ****   /* Infinite loop */
  95:Src/main.c    ****   /* USER CODE BEGIN WHILE */
  96:Src/main.c    ****   while (1)
  97:Src/main.c    ****   {
  98:Src/main.c    ****     /* USER CODE END WHILE */
  99:Src/main.c    **** 
 100:Src/main.c    ****     /* USER CODE BEGIN 3 */
 101:Src/main.c    ****     if (ledFlag) {
 102:Src/main.c    ****       GPIOA->ODR ^= LD2_Pin;
 103:Src/main.c    ****       ledFlag = 0;
 104:Src/main.c    ****     }
 105:Src/main.c    **** 
 106:Src/main.c    ****   }
 107:Src/main.c    ****   /* USER CODE END 3 */
 108:Src/main.c    **** }
 109:Src/main.c    **** 
 110:Src/main.c    **** /**
 111:Src/main.c    ****   * @brief System Clock Configuration
 112:Src/main.c    ****   * @retval None
 113:Src/main.c    ****   */
 114:Src/main.c    **** void SystemClock_Config(void)
 115:Src/main.c    **** {
 116:Src/main.c    ****   RCC_OscInitTypeDef RCC_OscInitStruct = {0};
 117:Src/main.c    ****   RCC_ClkInitTypeDef RCC_ClkInitStruct = {0};
 118:Src/main.c    **** 
 119:Src/main.c    ****   /** Configure the main internal regulator output voltage
 120:Src/main.c    ****   */
 121:Src/main.c    ****   __HAL_RCC_PWR_CLK_ENABLE();
 122:Src/main.c    ****   __HAL_PWR_VOLTAGESCALING_CONFIG(PWR_REGULATOR_VOLTAGE_SCALE1);
 123:Src/main.c    **** 
 124:Src/main.c    ****   /** Initializes the RCC Oscillators according to the specified parameters
 125:Src/main.c    ****   * in the RCC_OscInitTypeDef structure.
 126:Src/main.c    ****   */
 127:Src/main.c    ****   RCC_OscInitStruct.OscillatorType = RCC_OSCILLATORTYPE_HSI;
 128:Src/main.c    ****   RCC_OscInitStruct.HSIState = RCC_HSI_ON;
 129:Src/main.c    ****   RCC_OscInitStruct.HSICalibrationValue = RCC_HSICALIBRATION_DEFAULT;
 130:Src/main.c    ****   RCC_OscInitStruct.PLL.PLLState = RCC_PLL_ON;
 131:Src/main.c    ****   RCC_OscInitStruct.PLL.PLLSource = RCC_PLLSOURCE_HSI;
 132:Src/main.c    ****   RCC_OscInitStruct.PLL.PLLM = 16;
 133:Src/main.c    ****   RCC_OscInitStruct.PLL.PLLN = 336;
 134:Src/main.c    ****   RCC_OscInitStruct.PLL.PLLP = RCC_PLLP_DIV4;
 135:Src/main.c    ****   RCC_OscInitStruct.PLL.PLLQ = 4;
 136:Src/main.c    ****   RCC_OscInitStruct.PLL.PLLR = 2;
 137:Src/main.c    ****   if (HAL_RCC_OscConfig(&RCC_OscInitStruct) != HAL_OK)
 138:Src/main.c    ****   {
 139:Src/main.c    ****     Error_Handler();
 140:Src/main.c    ****   }
 141:Src/main.c    **** 
 142:Src/main.c    ****   /** Initializes the CPU, AHB and APB buses clocks
 143:Src/main.c    ****   */
 144:Src/main.c    ****   RCC_ClkInitStruct.ClockType = RCC_CLOCKTYPE_HCLK|RCC_CLOCKTYPE_SYSCLK
 145:Src/main.c    ****                               |RCC_CLOCKTYPE_PCLK1|RCC_CLOCKTYPE_PCLK2;
ARM GAS  C:\Users\nicol\AppData\Local\Temp\cchJ9jMi.s 			page 4


 146:Src/main.c    ****   RCC_ClkInitStruct.SYSCLKSource = RCC_SYSCLKSOURCE_PLLCLK;
 147:Src/main.c    ****   RCC_ClkInitStruct.AHBCLKDivider = RCC_SYSCLK_DIV1;
 148:Src/main.c    ****   RCC_ClkInitStruct.APB1CLKDivider = RCC_HCLK_DIV2;
 149:Src/main.c    ****   RCC_ClkInitStruct.APB2CLKDivider = RCC_HCLK_DIV1;
 150:Src/main.c    **** 
 151:Src/main.c    ****   if (HAL_RCC_ClockConfig(&RCC_ClkInitStruct, FLASH_LATENCY_2) != HAL_OK)
 152:Src/main.c    ****   {
 153:Src/main.c    ****     Error_Handler();
 154:Src/main.c    ****   }
 155:Src/main.c    **** }
 156:Src/main.c    **** 
 157:Src/main.c    **** /**
 158:Src/main.c    ****   * @brief GPIO Initialization Function
 159:Src/main.c    ****   * @param None
 160:Src/main.c    ****   * @retval None
 161:Src/main.c    ****   */
 162:Src/main.c    **** static void MX_GPIO_Init(void)
 163:Src/main.c    **** {
  28              		.loc 1 163 1 view -0
  29              		.cfi_startproc
  30              		@ args = 0, pretend = 0, frame = 40
  31              		@ frame_needed = 0, uses_anonymous_args = 0
  32 0000 30B5     		push	{r4, r5, lr}
  33              	.LCFI0:
  34              		.cfi_def_cfa_offset 12
  35              		.cfi_offset 4, -12
  36              		.cfi_offset 5, -8
  37              		.cfi_offset 14, -4
  38 0002 8BB0     		sub	sp, sp, #44
  39              	.LCFI1:
  40              		.cfi_def_cfa_offset 56
 164:Src/main.c    ****   GPIO_InitTypeDef GPIO_InitStruct = {0};
  41              		.loc 1 164 3 view .LVU1
  42              		.loc 1 164 20 is_stmt 0 view .LVU2
  43 0004 0024     		movs	r4, #0
  44 0006 0594     		str	r4, [sp, #20]
  45 0008 0694     		str	r4, [sp, #24]
  46 000a 0794     		str	r4, [sp, #28]
  47 000c 0894     		str	r4, [sp, #32]
  48 000e 0994     		str	r4, [sp, #36]
 165:Src/main.c    **** 
 166:Src/main.c    ****   /* GPIO Ports Clock Enable */
 167:Src/main.c    ****   __HAL_RCC_GPIOC_CLK_ENABLE();
  49              		.loc 1 167 3 is_stmt 1 view .LVU3
  50              	.LBB4:
  51              		.loc 1 167 3 view .LVU4
  52 0010 0194     		str	r4, [sp, #4]
  53              		.loc 1 167 3 view .LVU5
  54 0012 224B     		ldr	r3, .L3
  55 0014 1A6B     		ldr	r2, [r3, #48]
  56 0016 42F00402 		orr	r2, r2, #4
  57 001a 1A63     		str	r2, [r3, #48]
  58              		.loc 1 167 3 view .LVU6
  59 001c 1A6B     		ldr	r2, [r3, #48]
  60 001e 02F00402 		and	r2, r2, #4
  61 0022 0192     		str	r2, [sp, #4]
  62              		.loc 1 167 3 view .LVU7
ARM GAS  C:\Users\nicol\AppData\Local\Temp\cchJ9jMi.s 			page 5


  63 0024 019A     		ldr	r2, [sp, #4]
  64              	.LBE4:
  65              		.loc 1 167 3 view .LVU8
 168:Src/main.c    ****   __HAL_RCC_GPIOH_CLK_ENABLE();
  66              		.loc 1 168 3 view .LVU9
  67              	.LBB5:
  68              		.loc 1 168 3 view .LVU10
  69 0026 0294     		str	r4, [sp, #8]
  70              		.loc 1 168 3 view .LVU11
  71 0028 1A6B     		ldr	r2, [r3, #48]
  72 002a 42F08002 		orr	r2, r2, #128
  73 002e 1A63     		str	r2, [r3, #48]
  74              		.loc 1 168 3 view .LVU12
  75 0030 1A6B     		ldr	r2, [r3, #48]
  76 0032 02F08002 		and	r2, r2, #128
  77 0036 0292     		str	r2, [sp, #8]
  78              		.loc 1 168 3 view .LVU13
  79 0038 029A     		ldr	r2, [sp, #8]
  80              	.LBE5:
  81              		.loc 1 168 3 view .LVU14
 169:Src/main.c    ****   __HAL_RCC_GPIOA_CLK_ENABLE();
  82              		.loc 1 169 3 view .LVU15
  83              	.LBB6:
  84              		.loc 1 169 3 view .LVU16
  85 003a 0394     		str	r4, [sp, #12]
  86              		.loc 1 169 3 view .LVU17
  87 003c 1A6B     		ldr	r2, [r3, #48]
  88 003e 42F00102 		orr	r2, r2, #1
  89 0042 1A63     		str	r2, [r3, #48]
  90              		.loc 1 169 3 view .LVU18
  91 0044 1A6B     		ldr	r2, [r3, #48]
  92 0046 02F00102 		and	r2, r2, #1
  93 004a 0392     		str	r2, [sp, #12]
  94              		.loc 1 169 3 view .LVU19
  95 004c 039A     		ldr	r2, [sp, #12]
  96              	.LBE6:
  97              		.loc 1 169 3 view .LVU20
 170:Src/main.c    ****   __HAL_RCC_GPIOB_CLK_ENABLE();
  98              		.loc 1 170 3 view .LVU21
  99              	.LBB7:
 100              		.loc 1 170 3 view .LVU22
 101 004e 0494     		str	r4, [sp, #16]
 102              		.loc 1 170 3 view .LVU23
 103 0050 1A6B     		ldr	r2, [r3, #48]
 104 0052 42F00202 		orr	r2, r2, #2
 105 0056 1A63     		str	r2, [r3, #48]
 106              		.loc 1 170 3 view .LVU24
 107 0058 1B6B     		ldr	r3, [r3, #48]
 108 005a 03F00203 		and	r3, r3, #2
 109 005e 0493     		str	r3, [sp, #16]
 110              		.loc 1 170 3 view .LVU25
 111 0060 049B     		ldr	r3, [sp, #16]
 112              	.LBE7:
 113              		.loc 1 170 3 view .LVU26
 171:Src/main.c    **** 
 172:Src/main.c    ****   /*Configure GPIO pin Output Level */
 173:Src/main.c    ****   HAL_GPIO_WritePin(LD2_GPIO_Port, LD2_Pin, GPIO_PIN_RESET);
ARM GAS  C:\Users\nicol\AppData\Local\Temp\cchJ9jMi.s 			page 6


 114              		.loc 1 173 3 view .LVU27
 115 0062 0F4D     		ldr	r5, .L3+4
 116 0064 2246     		mov	r2, r4
 117 0066 2021     		movs	r1, #32
 118 0068 2846     		mov	r0, r5
 119 006a FFF7FEFF 		bl	HAL_GPIO_WritePin
 120              	.LVL0:
 174:Src/main.c    **** 
 175:Src/main.c    ****   /*Configure GPIO pin : B1_Pin */
 176:Src/main.c    ****   GPIO_InitStruct.Pin = B1_Pin;
 121              		.loc 1 176 3 view .LVU28
 122              		.loc 1 176 23 is_stmt 0 view .LVU29
 123 006e 4FF40053 		mov	r3, #8192
 124 0072 0593     		str	r3, [sp, #20]
 177:Src/main.c    ****   GPIO_InitStruct.Mode = GPIO_MODE_IT_FALLING;
 125              		.loc 1 177 3 is_stmt 1 view .LVU30
 126              		.loc 1 177 24 is_stmt 0 view .LVU31
 127 0074 4FF40413 		mov	r3, #2162688
 128 0078 0693     		str	r3, [sp, #24]
 178:Src/main.c    ****   GPIO_InitStruct.Pull = GPIO_NOPULL;
 129              		.loc 1 178 3 is_stmt 1 view .LVU32
 130              		.loc 1 178 24 is_stmt 0 view .LVU33
 131 007a 0794     		str	r4, [sp, #28]
 179:Src/main.c    ****   HAL_GPIO_Init(B1_GPIO_Port, &GPIO_InitStruct);
 132              		.loc 1 179 3 is_stmt 1 view .LVU34
 133 007c 05A9     		add	r1, sp, #20
 134 007e 0948     		ldr	r0, .L3+8
 135 0080 FFF7FEFF 		bl	HAL_GPIO_Init
 136              	.LVL1:
 180:Src/main.c    **** 
 181:Src/main.c    ****   /*Configure GPIO pin : LD2_Pin */
 182:Src/main.c    ****   GPIO_InitStruct.Pin = LD2_Pin;
 137              		.loc 1 182 3 view .LVU35
 138              		.loc 1 182 23 is_stmt 0 view .LVU36
 139 0084 2023     		movs	r3, #32
 140 0086 0593     		str	r3, [sp, #20]
 183:Src/main.c    ****   GPIO_InitStruct.Mode = GPIO_MODE_OUTPUT_PP;
 141              		.loc 1 183 3 is_stmt 1 view .LVU37
 142              		.loc 1 183 24 is_stmt 0 view .LVU38
 143 0088 0123     		movs	r3, #1
 144 008a 0693     		str	r3, [sp, #24]
 184:Src/main.c    ****   GPIO_InitStruct.Pull = GPIO_NOPULL;
 145              		.loc 1 184 3 is_stmt 1 view .LVU39
 146              		.loc 1 184 24 is_stmt 0 view .LVU40
 147 008c 0794     		str	r4, [sp, #28]
 185:Src/main.c    ****   GPIO_InitStruct.Speed = GPIO_SPEED_FREQ_LOW;
 148              		.loc 1 185 3 is_stmt 1 view .LVU41
 149              		.loc 1 185 25 is_stmt 0 view .LVU42
 150 008e 0894     		str	r4, [sp, #32]
 186:Src/main.c    ****   HAL_GPIO_Init(LD2_GPIO_Port, &GPIO_InitStruct);
 151              		.loc 1 186 3 is_stmt 1 view .LVU43
 152 0090 05A9     		add	r1, sp, #20
 153 0092 2846     		mov	r0, r5
 154 0094 FFF7FEFF 		bl	HAL_GPIO_Init
 155              	.LVL2:
 187:Src/main.c    **** 
 188:Src/main.c    **** }
ARM GAS  C:\Users\nicol\AppData\Local\Temp\cchJ9jMi.s 			page 7


 156              		.loc 1 188 1 is_stmt 0 view .LVU44
 157 0098 0BB0     		add	sp, sp, #44
 158              	.LCFI2:
 159              		.cfi_def_cfa_offset 12
 160              		@ sp needed
 161 009a 30BD     		pop	{r4, r5, pc}
 162              	.L4:
 163              		.align	2
 164              	.L3:
 165 009c 00380240 		.word	1073887232
 166 00a0 00000240 		.word	1073872896
 167 00a4 00080240 		.word	1073874944
 168              		.cfi_endproc
 169              	.LFE132:
 171              		.section	.text.Error_Handler,"ax",%progbits
 172              		.align	1
 173              		.global	Error_Handler
 174              		.syntax unified
 175              		.thumb
 176              		.thumb_func
 177              		.fpu fpv4-sp-d16
 179              	Error_Handler:
 180              	.LFB133:
 189:Src/main.c    **** 
 190:Src/main.c    **** /* USER CODE BEGIN 4 */
 191:Src/main.c    **** 
 192:Src/main.c    **** /* USER CODE END 4 */
 193:Src/main.c    **** 
 194:Src/main.c    **** /**
 195:Src/main.c    ****   * @brief  This function is executed in case of error occurrence.
 196:Src/main.c    ****   * @retval None
 197:Src/main.c    ****   */
 198:Src/main.c    **** void Error_Handler(void)
 199:Src/main.c    **** {
 181              		.loc 1 199 1 is_stmt 1 view -0
 182              		.cfi_startproc
 183              		@ Volatile: function does not return.
 184              		@ args = 0, pretend = 0, frame = 0
 185              		@ frame_needed = 0, uses_anonymous_args = 0
 186              		@ link register save eliminated.
 200:Src/main.c    ****   /* USER CODE BEGIN Error_Handler_Debug */
 201:Src/main.c    ****   /* User can add his own implementation to report the HAL error return state */
 202:Src/main.c    ****   __disable_irq();
 187              		.loc 1 202 3 view .LVU46
 188              	.LBB8:
 189              	.LBI8:
 190              		.file 2 "Drivers/CMSIS/Include/cmsis_gcc.h"
   1:Drivers/CMSIS/Include/cmsis_gcc.h **** /**************************************************************************//**
   2:Drivers/CMSIS/Include/cmsis_gcc.h ****  * @file     cmsis_gcc.h
   3:Drivers/CMSIS/Include/cmsis_gcc.h ****  * @brief    CMSIS compiler GCC header file
   4:Drivers/CMSIS/Include/cmsis_gcc.h ****  * @version  V5.0.4
   5:Drivers/CMSIS/Include/cmsis_gcc.h ****  * @date     09. April 2018
   6:Drivers/CMSIS/Include/cmsis_gcc.h ****  ******************************************************************************/
   7:Drivers/CMSIS/Include/cmsis_gcc.h **** /*
   8:Drivers/CMSIS/Include/cmsis_gcc.h ****  * Copyright (c) 2009-2018 Arm Limited. All rights reserved.
   9:Drivers/CMSIS/Include/cmsis_gcc.h ****  *
  10:Drivers/CMSIS/Include/cmsis_gcc.h ****  * SPDX-License-Identifier: Apache-2.0
ARM GAS  C:\Users\nicol\AppData\Local\Temp\cchJ9jMi.s 			page 8


  11:Drivers/CMSIS/Include/cmsis_gcc.h ****  *
  12:Drivers/CMSIS/Include/cmsis_gcc.h ****  * Licensed under the Apache License, Version 2.0 (the License); you may
  13:Drivers/CMSIS/Include/cmsis_gcc.h ****  * not use this file except in compliance with the License.
  14:Drivers/CMSIS/Include/cmsis_gcc.h ****  * You may obtain a copy of the License at
  15:Drivers/CMSIS/Include/cmsis_gcc.h ****  *
  16:Drivers/CMSIS/Include/cmsis_gcc.h ****  * www.apache.org/licenses/LICENSE-2.0
  17:Drivers/CMSIS/Include/cmsis_gcc.h ****  *
  18:Drivers/CMSIS/Include/cmsis_gcc.h ****  * Unless required by applicable law or agreed to in writing, software
  19:Drivers/CMSIS/Include/cmsis_gcc.h ****  * distributed under the License is distributed on an AS IS BASIS, WITHOUT
  20:Drivers/CMSIS/Include/cmsis_gcc.h ****  * WARRANTIES OR CONDITIONS OF ANY KIND, either express or implied.
  21:Drivers/CMSIS/Include/cmsis_gcc.h ****  * See the License for the specific language governing permissions and
  22:Drivers/CMSIS/Include/cmsis_gcc.h ****  * limitations under the License.
  23:Drivers/CMSIS/Include/cmsis_gcc.h ****  */
  24:Drivers/CMSIS/Include/cmsis_gcc.h **** 
  25:Drivers/CMSIS/Include/cmsis_gcc.h **** #ifndef __CMSIS_GCC_H
  26:Drivers/CMSIS/Include/cmsis_gcc.h **** #define __CMSIS_GCC_H
  27:Drivers/CMSIS/Include/cmsis_gcc.h **** 
  28:Drivers/CMSIS/Include/cmsis_gcc.h **** /* ignore some GCC warnings */
  29:Drivers/CMSIS/Include/cmsis_gcc.h **** #pragma GCC diagnostic push
  30:Drivers/CMSIS/Include/cmsis_gcc.h **** #pragma GCC diagnostic ignored "-Wsign-conversion"
  31:Drivers/CMSIS/Include/cmsis_gcc.h **** #pragma GCC diagnostic ignored "-Wconversion"
  32:Drivers/CMSIS/Include/cmsis_gcc.h **** #pragma GCC diagnostic ignored "-Wunused-parameter"
  33:Drivers/CMSIS/Include/cmsis_gcc.h **** 
  34:Drivers/CMSIS/Include/cmsis_gcc.h **** /* Fallback for __has_builtin */
  35:Drivers/CMSIS/Include/cmsis_gcc.h **** #ifndef __has_builtin
  36:Drivers/CMSIS/Include/cmsis_gcc.h ****   #define __has_builtin(x) (0)
  37:Drivers/CMSIS/Include/cmsis_gcc.h **** #endif
  38:Drivers/CMSIS/Include/cmsis_gcc.h **** 
  39:Drivers/CMSIS/Include/cmsis_gcc.h **** /* CMSIS compiler specific defines */
  40:Drivers/CMSIS/Include/cmsis_gcc.h **** #ifndef   __ASM
  41:Drivers/CMSIS/Include/cmsis_gcc.h ****   #define __ASM                                  __asm
  42:Drivers/CMSIS/Include/cmsis_gcc.h **** #endif
  43:Drivers/CMSIS/Include/cmsis_gcc.h **** #ifndef   __INLINE
  44:Drivers/CMSIS/Include/cmsis_gcc.h ****   #define __INLINE                               inline
  45:Drivers/CMSIS/Include/cmsis_gcc.h **** #endif
  46:Drivers/CMSIS/Include/cmsis_gcc.h **** #ifndef   __STATIC_INLINE
  47:Drivers/CMSIS/Include/cmsis_gcc.h ****   #define __STATIC_INLINE                        static inline
  48:Drivers/CMSIS/Include/cmsis_gcc.h **** #endif
  49:Drivers/CMSIS/Include/cmsis_gcc.h **** #ifndef   __STATIC_FORCEINLINE                 
  50:Drivers/CMSIS/Include/cmsis_gcc.h ****   #define __STATIC_FORCEINLINE                   __attribute__((always_inline)) static inline
  51:Drivers/CMSIS/Include/cmsis_gcc.h **** #endif                                           
  52:Drivers/CMSIS/Include/cmsis_gcc.h **** #ifndef   __NO_RETURN
  53:Drivers/CMSIS/Include/cmsis_gcc.h ****   #define __NO_RETURN                            __attribute__((__noreturn__))
  54:Drivers/CMSIS/Include/cmsis_gcc.h **** #endif
  55:Drivers/CMSIS/Include/cmsis_gcc.h **** #ifndef   __USED
  56:Drivers/CMSIS/Include/cmsis_gcc.h ****   #define __USED                                 __attribute__((used))
  57:Drivers/CMSIS/Include/cmsis_gcc.h **** #endif
  58:Drivers/CMSIS/Include/cmsis_gcc.h **** #ifndef   __WEAK
  59:Drivers/CMSIS/Include/cmsis_gcc.h ****   #define __WEAK                                 __attribute__((weak))
  60:Drivers/CMSIS/Include/cmsis_gcc.h **** #endif
  61:Drivers/CMSIS/Include/cmsis_gcc.h **** #ifndef   __PACKED
  62:Drivers/CMSIS/Include/cmsis_gcc.h ****   #define __PACKED                               __attribute__((packed, aligned(1)))
  63:Drivers/CMSIS/Include/cmsis_gcc.h **** #endif
  64:Drivers/CMSIS/Include/cmsis_gcc.h **** #ifndef   __PACKED_STRUCT
  65:Drivers/CMSIS/Include/cmsis_gcc.h ****   #define __PACKED_STRUCT                        struct __attribute__((packed, aligned(1)))
  66:Drivers/CMSIS/Include/cmsis_gcc.h **** #endif
  67:Drivers/CMSIS/Include/cmsis_gcc.h **** #ifndef   __PACKED_UNION
ARM GAS  C:\Users\nicol\AppData\Local\Temp\cchJ9jMi.s 			page 9


  68:Drivers/CMSIS/Include/cmsis_gcc.h ****   #define __PACKED_UNION                         union __attribute__((packed, aligned(1)))
  69:Drivers/CMSIS/Include/cmsis_gcc.h **** #endif
  70:Drivers/CMSIS/Include/cmsis_gcc.h **** #ifndef   __UNALIGNED_UINT32        /* deprecated */
  71:Drivers/CMSIS/Include/cmsis_gcc.h ****   #pragma GCC diagnostic push
  72:Drivers/CMSIS/Include/cmsis_gcc.h ****   #pragma GCC diagnostic ignored "-Wpacked"
  73:Drivers/CMSIS/Include/cmsis_gcc.h ****   #pragma GCC diagnostic ignored "-Wattributes"
  74:Drivers/CMSIS/Include/cmsis_gcc.h ****   struct __attribute__((packed)) T_UINT32 { uint32_t v; };
  75:Drivers/CMSIS/Include/cmsis_gcc.h ****   #pragma GCC diagnostic pop
  76:Drivers/CMSIS/Include/cmsis_gcc.h ****   #define __UNALIGNED_UINT32(x)                  (((struct T_UINT32 *)(x))->v)
  77:Drivers/CMSIS/Include/cmsis_gcc.h **** #endif
  78:Drivers/CMSIS/Include/cmsis_gcc.h **** #ifndef   __UNALIGNED_UINT16_WRITE
  79:Drivers/CMSIS/Include/cmsis_gcc.h ****   #pragma GCC diagnostic push
  80:Drivers/CMSIS/Include/cmsis_gcc.h ****   #pragma GCC diagnostic ignored "-Wpacked"
  81:Drivers/CMSIS/Include/cmsis_gcc.h ****   #pragma GCC diagnostic ignored "-Wattributes"
  82:Drivers/CMSIS/Include/cmsis_gcc.h ****   __PACKED_STRUCT T_UINT16_WRITE { uint16_t v; };
  83:Drivers/CMSIS/Include/cmsis_gcc.h ****   #pragma GCC diagnostic pop
  84:Drivers/CMSIS/Include/cmsis_gcc.h ****   #define __UNALIGNED_UINT16_WRITE(addr, val)    (void)((((struct T_UINT16_WRITE *)(void *)(addr))-
  85:Drivers/CMSIS/Include/cmsis_gcc.h **** #endif
  86:Drivers/CMSIS/Include/cmsis_gcc.h **** #ifndef   __UNALIGNED_UINT16_READ
  87:Drivers/CMSIS/Include/cmsis_gcc.h ****   #pragma GCC diagnostic push
  88:Drivers/CMSIS/Include/cmsis_gcc.h ****   #pragma GCC diagnostic ignored "-Wpacked"
  89:Drivers/CMSIS/Include/cmsis_gcc.h ****   #pragma GCC diagnostic ignored "-Wattributes"
  90:Drivers/CMSIS/Include/cmsis_gcc.h ****   __PACKED_STRUCT T_UINT16_READ { uint16_t v; };
  91:Drivers/CMSIS/Include/cmsis_gcc.h ****   #pragma GCC diagnostic pop
  92:Drivers/CMSIS/Include/cmsis_gcc.h ****   #define __UNALIGNED_UINT16_READ(addr)          (((const struct T_UINT16_READ *)(const void *)(add
  93:Drivers/CMSIS/Include/cmsis_gcc.h **** #endif
  94:Drivers/CMSIS/Include/cmsis_gcc.h **** #ifndef   __UNALIGNED_UINT32_WRITE
  95:Drivers/CMSIS/Include/cmsis_gcc.h ****   #pragma GCC diagnostic push
  96:Drivers/CMSIS/Include/cmsis_gcc.h ****   #pragma GCC diagnostic ignored "-Wpacked"
  97:Drivers/CMSIS/Include/cmsis_gcc.h ****   #pragma GCC diagnostic ignored "-Wattributes"
  98:Drivers/CMSIS/Include/cmsis_gcc.h ****   __PACKED_STRUCT T_UINT32_WRITE { uint32_t v; };
  99:Drivers/CMSIS/Include/cmsis_gcc.h ****   #pragma GCC diagnostic pop
 100:Drivers/CMSIS/Include/cmsis_gcc.h ****   #define __UNALIGNED_UINT32_WRITE(addr, val)    (void)((((struct T_UINT32_WRITE *)(void *)(addr))-
 101:Drivers/CMSIS/Include/cmsis_gcc.h **** #endif
 102:Drivers/CMSIS/Include/cmsis_gcc.h **** #ifndef   __UNALIGNED_UINT32_READ
 103:Drivers/CMSIS/Include/cmsis_gcc.h ****   #pragma GCC diagnostic push
 104:Drivers/CMSIS/Include/cmsis_gcc.h ****   #pragma GCC diagnostic ignored "-Wpacked"
 105:Drivers/CMSIS/Include/cmsis_gcc.h ****   #pragma GCC diagnostic ignored "-Wattributes"
 106:Drivers/CMSIS/Include/cmsis_gcc.h ****   __PACKED_STRUCT T_UINT32_READ { uint32_t v; };
 107:Drivers/CMSIS/Include/cmsis_gcc.h ****   #pragma GCC diagnostic pop
 108:Drivers/CMSIS/Include/cmsis_gcc.h ****   #define __UNALIGNED_UINT32_READ(addr)          (((const struct T_UINT32_READ *)(const void *)(add
 109:Drivers/CMSIS/Include/cmsis_gcc.h **** #endif
 110:Drivers/CMSIS/Include/cmsis_gcc.h **** #ifndef   __ALIGNED
 111:Drivers/CMSIS/Include/cmsis_gcc.h ****   #define __ALIGNED(x)                           __attribute__((aligned(x)))
 112:Drivers/CMSIS/Include/cmsis_gcc.h **** #endif
 113:Drivers/CMSIS/Include/cmsis_gcc.h **** #ifndef   __RESTRICT
 114:Drivers/CMSIS/Include/cmsis_gcc.h ****   #define __RESTRICT                             __restrict
 115:Drivers/CMSIS/Include/cmsis_gcc.h **** #endif
 116:Drivers/CMSIS/Include/cmsis_gcc.h **** 
 117:Drivers/CMSIS/Include/cmsis_gcc.h **** 
 118:Drivers/CMSIS/Include/cmsis_gcc.h **** /* ###########################  Core Function Access  ########################### */
 119:Drivers/CMSIS/Include/cmsis_gcc.h **** /** \ingroup  CMSIS_Core_FunctionInterface
 120:Drivers/CMSIS/Include/cmsis_gcc.h ****     \defgroup CMSIS_Core_RegAccFunctions CMSIS Core Register Access Functions
 121:Drivers/CMSIS/Include/cmsis_gcc.h ****   @{
 122:Drivers/CMSIS/Include/cmsis_gcc.h ****  */
 123:Drivers/CMSIS/Include/cmsis_gcc.h **** 
 124:Drivers/CMSIS/Include/cmsis_gcc.h **** /**
ARM GAS  C:\Users\nicol\AppData\Local\Temp\cchJ9jMi.s 			page 10


 125:Drivers/CMSIS/Include/cmsis_gcc.h ****   \brief   Enable IRQ Interrupts
 126:Drivers/CMSIS/Include/cmsis_gcc.h ****   \details Enables IRQ interrupts by clearing the I-bit in the CPSR.
 127:Drivers/CMSIS/Include/cmsis_gcc.h ****            Can only be executed in Privileged modes.
 128:Drivers/CMSIS/Include/cmsis_gcc.h ****  */
 129:Drivers/CMSIS/Include/cmsis_gcc.h **** __STATIC_FORCEINLINE void __enable_irq(void)
 130:Drivers/CMSIS/Include/cmsis_gcc.h **** {
 131:Drivers/CMSIS/Include/cmsis_gcc.h ****   __ASM volatile ("cpsie i" : : : "memory");
 132:Drivers/CMSIS/Include/cmsis_gcc.h **** }
 133:Drivers/CMSIS/Include/cmsis_gcc.h **** 
 134:Drivers/CMSIS/Include/cmsis_gcc.h **** 
 135:Drivers/CMSIS/Include/cmsis_gcc.h **** /**
 136:Drivers/CMSIS/Include/cmsis_gcc.h ****   \brief   Disable IRQ Interrupts
 137:Drivers/CMSIS/Include/cmsis_gcc.h ****   \details Disables IRQ interrupts by setting the I-bit in the CPSR.
 138:Drivers/CMSIS/Include/cmsis_gcc.h ****            Can only be executed in Privileged modes.
 139:Drivers/CMSIS/Include/cmsis_gcc.h ****  */
 140:Drivers/CMSIS/Include/cmsis_gcc.h **** __STATIC_FORCEINLINE void __disable_irq(void)
 191              		.loc 2 140 27 view .LVU47
 192              	.LBB9:
 141:Drivers/CMSIS/Include/cmsis_gcc.h **** {
 142:Drivers/CMSIS/Include/cmsis_gcc.h ****   __ASM volatile ("cpsid i" : : : "memory");
 193              		.loc 2 142 3 view .LVU48
 194              		.syntax unified
 195              	@ 142 "Drivers/CMSIS/Include/cmsis_gcc.h" 1
 196 0000 72B6     		cpsid i
 197              	@ 0 "" 2
 198              		.thumb
 199              		.syntax unified
 200              	.L6:
 201              	.LBE9:
 202              	.LBE8:
 203:Src/main.c    ****   while (1)
 203              		.loc 1 203 3 discriminator 1 view .LVU49
 204:Src/main.c    ****   {
 205:Src/main.c    ****   }
 204              		.loc 1 205 3 discriminator 1 view .LVU50
 203:Src/main.c    ****   while (1)
 205              		.loc 1 203 9 discriminator 1 view .LVU51
 206 0002 FEE7     		b	.L6
 207              		.cfi_endproc
 208              	.LFE133:
 210              		.section	.text.SystemClock_Config,"ax",%progbits
 211              		.align	1
 212              		.global	SystemClock_Config
 213              		.syntax unified
 214              		.thumb
 215              		.thumb_func
 216              		.fpu fpv4-sp-d16
 218              	SystemClock_Config:
 219              	.LFB131:
 115:Src/main.c    ****   RCC_OscInitTypeDef RCC_OscInitStruct = {0};
 220              		.loc 1 115 1 view -0
 221              		.cfi_startproc
 222              		@ args = 0, pretend = 0, frame = 80
 223              		@ frame_needed = 0, uses_anonymous_args = 0
 224 0000 00B5     		push	{lr}
 225              	.LCFI3:
 226              		.cfi_def_cfa_offset 4
ARM GAS  C:\Users\nicol\AppData\Local\Temp\cchJ9jMi.s 			page 11


 227              		.cfi_offset 14, -4
 228 0002 95B0     		sub	sp, sp, #84
 229              	.LCFI4:
 230              		.cfi_def_cfa_offset 88
 116:Src/main.c    ****   RCC_ClkInitTypeDef RCC_ClkInitStruct = {0};
 231              		.loc 1 116 3 view .LVU53
 116:Src/main.c    ****   RCC_ClkInitTypeDef RCC_ClkInitStruct = {0};
 232              		.loc 1 116 22 is_stmt 0 view .LVU54
 233 0004 3422     		movs	r2, #52
 234 0006 0021     		movs	r1, #0
 235 0008 07A8     		add	r0, sp, #28
 236 000a FFF7FEFF 		bl	memset
 237              	.LVL3:
 117:Src/main.c    **** 
 238              		.loc 1 117 3 is_stmt 1 view .LVU55
 117:Src/main.c    **** 
 239              		.loc 1 117 22 is_stmt 0 view .LVU56
 240 000e 0023     		movs	r3, #0
 241 0010 0293     		str	r3, [sp, #8]
 242 0012 0393     		str	r3, [sp, #12]
 243 0014 0493     		str	r3, [sp, #16]
 244 0016 0593     		str	r3, [sp, #20]
 245 0018 0693     		str	r3, [sp, #24]
 121:Src/main.c    ****   __HAL_PWR_VOLTAGESCALING_CONFIG(PWR_REGULATOR_VOLTAGE_SCALE1);
 246              		.loc 1 121 3 is_stmt 1 view .LVU57
 247              	.LBB10:
 121:Src/main.c    ****   __HAL_PWR_VOLTAGESCALING_CONFIG(PWR_REGULATOR_VOLTAGE_SCALE1);
 248              		.loc 1 121 3 view .LVU58
 249 001a 0093     		str	r3, [sp]
 121:Src/main.c    ****   __HAL_PWR_VOLTAGESCALING_CONFIG(PWR_REGULATOR_VOLTAGE_SCALE1);
 250              		.loc 1 121 3 view .LVU59
 251 001c 1E4A     		ldr	r2, .L13
 252 001e 116C     		ldr	r1, [r2, #64]
 253 0020 41F08051 		orr	r1, r1, #268435456
 254 0024 1164     		str	r1, [r2, #64]
 121:Src/main.c    ****   __HAL_PWR_VOLTAGESCALING_CONFIG(PWR_REGULATOR_VOLTAGE_SCALE1);
 255              		.loc 1 121 3 view .LVU60
 256 0026 126C     		ldr	r2, [r2, #64]
 257 0028 02F08052 		and	r2, r2, #268435456
 258 002c 0092     		str	r2, [sp]
 121:Src/main.c    ****   __HAL_PWR_VOLTAGESCALING_CONFIG(PWR_REGULATOR_VOLTAGE_SCALE1);
 259              		.loc 1 121 3 view .LVU61
 260 002e 009A     		ldr	r2, [sp]
 261              	.LBE10:
 121:Src/main.c    ****   __HAL_PWR_VOLTAGESCALING_CONFIG(PWR_REGULATOR_VOLTAGE_SCALE1);
 262              		.loc 1 121 3 view .LVU62
 122:Src/main.c    **** 
 263              		.loc 1 122 3 view .LVU63
 264              	.LBB11:
 122:Src/main.c    **** 
 265              		.loc 1 122 3 view .LVU64
 266 0030 0193     		str	r3, [sp, #4]
 122:Src/main.c    **** 
 267              		.loc 1 122 3 view .LVU65
 268 0032 1A4A     		ldr	r2, .L13+4
 269 0034 1168     		ldr	r1, [r2]
 270 0036 41F44041 		orr	r1, r1, #49152
ARM GAS  C:\Users\nicol\AppData\Local\Temp\cchJ9jMi.s 			page 12


 271 003a 1160     		str	r1, [r2]
 122:Src/main.c    **** 
 272              		.loc 1 122 3 view .LVU66
 273 003c 1268     		ldr	r2, [r2]
 274 003e 02F44042 		and	r2, r2, #49152
 275 0042 0192     		str	r2, [sp, #4]
 122:Src/main.c    **** 
 276              		.loc 1 122 3 view .LVU67
 277 0044 019A     		ldr	r2, [sp, #4]
 278              	.LBE11:
 122:Src/main.c    **** 
 279              		.loc 1 122 3 view .LVU68
 127:Src/main.c    ****   RCC_OscInitStruct.HSIState = RCC_HSI_ON;
 280              		.loc 1 127 3 view .LVU69
 127:Src/main.c    ****   RCC_OscInitStruct.HSIState = RCC_HSI_ON;
 281              		.loc 1 127 36 is_stmt 0 view .LVU70
 282 0046 0222     		movs	r2, #2
 283 0048 0792     		str	r2, [sp, #28]
 128:Src/main.c    ****   RCC_OscInitStruct.HSICalibrationValue = RCC_HSICALIBRATION_DEFAULT;
 284              		.loc 1 128 3 is_stmt 1 view .LVU71
 128:Src/main.c    ****   RCC_OscInitStruct.HSICalibrationValue = RCC_HSICALIBRATION_DEFAULT;
 285              		.loc 1 128 30 is_stmt 0 view .LVU72
 286 004a 0121     		movs	r1, #1
 287 004c 0A91     		str	r1, [sp, #40]
 129:Src/main.c    ****   RCC_OscInitStruct.PLL.PLLState = RCC_PLL_ON;
 288              		.loc 1 129 3 is_stmt 1 view .LVU73
 129:Src/main.c    ****   RCC_OscInitStruct.PLL.PLLState = RCC_PLL_ON;
 289              		.loc 1 129 41 is_stmt 0 view .LVU74
 290 004e 1021     		movs	r1, #16
 291 0050 0B91     		str	r1, [sp, #44]
 130:Src/main.c    ****   RCC_OscInitStruct.PLL.PLLSource = RCC_PLLSOURCE_HSI;
 292              		.loc 1 130 3 is_stmt 1 view .LVU75
 130:Src/main.c    ****   RCC_OscInitStruct.PLL.PLLSource = RCC_PLLSOURCE_HSI;
 293              		.loc 1 130 34 is_stmt 0 view .LVU76
 294 0052 0D92     		str	r2, [sp, #52]
 131:Src/main.c    ****   RCC_OscInitStruct.PLL.PLLM = 16;
 295              		.loc 1 131 3 is_stmt 1 view .LVU77
 131:Src/main.c    ****   RCC_OscInitStruct.PLL.PLLM = 16;
 296              		.loc 1 131 35 is_stmt 0 view .LVU78
 297 0054 0E93     		str	r3, [sp, #56]
 132:Src/main.c    ****   RCC_OscInitStruct.PLL.PLLN = 336;
 298              		.loc 1 132 3 is_stmt 1 view .LVU79
 132:Src/main.c    ****   RCC_OscInitStruct.PLL.PLLN = 336;
 299              		.loc 1 132 30 is_stmt 0 view .LVU80
 300 0056 0F91     		str	r1, [sp, #60]
 133:Src/main.c    ****   RCC_OscInitStruct.PLL.PLLP = RCC_PLLP_DIV4;
 301              		.loc 1 133 3 is_stmt 1 view .LVU81
 133:Src/main.c    ****   RCC_OscInitStruct.PLL.PLLP = RCC_PLLP_DIV4;
 302              		.loc 1 133 30 is_stmt 0 view .LVU82
 303 0058 4FF4A873 		mov	r3, #336
 304 005c 1093     		str	r3, [sp, #64]
 134:Src/main.c    ****   RCC_OscInitStruct.PLL.PLLQ = 4;
 305              		.loc 1 134 3 is_stmt 1 view .LVU83
 134:Src/main.c    ****   RCC_OscInitStruct.PLL.PLLQ = 4;
 306              		.loc 1 134 30 is_stmt 0 view .LVU84
 307 005e 0423     		movs	r3, #4
 308 0060 1193     		str	r3, [sp, #68]
ARM GAS  C:\Users\nicol\AppData\Local\Temp\cchJ9jMi.s 			page 13


 135:Src/main.c    ****   RCC_OscInitStruct.PLL.PLLR = 2;
 309              		.loc 1 135 3 is_stmt 1 view .LVU85
 135:Src/main.c    ****   RCC_OscInitStruct.PLL.PLLR = 2;
 310              		.loc 1 135 30 is_stmt 0 view .LVU86
 311 0062 1293     		str	r3, [sp, #72]
 136:Src/main.c    ****   if (HAL_RCC_OscConfig(&RCC_OscInitStruct) != HAL_OK)
 312              		.loc 1 136 3 is_stmt 1 view .LVU87
 136:Src/main.c    ****   if (HAL_RCC_OscConfig(&RCC_OscInitStruct) != HAL_OK)
 313              		.loc 1 136 30 is_stmt 0 view .LVU88
 314 0064 1392     		str	r2, [sp, #76]
 137:Src/main.c    ****   {
 315              		.loc 1 137 3 is_stmt 1 view .LVU89
 137:Src/main.c    ****   {
 316              		.loc 1 137 7 is_stmt 0 view .LVU90
 317 0066 07A8     		add	r0, sp, #28
 318 0068 FFF7FEFF 		bl	HAL_RCC_OscConfig
 319              	.LVL4:
 137:Src/main.c    ****   {
 320              		.loc 1 137 6 view .LVU91
 321 006c 80B9     		cbnz	r0, .L11
 144:Src/main.c    ****                               |RCC_CLOCKTYPE_PCLK1|RCC_CLOCKTYPE_PCLK2;
 322              		.loc 1 144 3 is_stmt 1 view .LVU92
 144:Src/main.c    ****                               |RCC_CLOCKTYPE_PCLK1|RCC_CLOCKTYPE_PCLK2;
 323              		.loc 1 144 31 is_stmt 0 view .LVU93
 324 006e 0F23     		movs	r3, #15
 325 0070 0293     		str	r3, [sp, #8]
 146:Src/main.c    ****   RCC_ClkInitStruct.AHBCLKDivider = RCC_SYSCLK_DIV1;
 326              		.loc 1 146 3 is_stmt 1 view .LVU94
 146:Src/main.c    ****   RCC_ClkInitStruct.AHBCLKDivider = RCC_SYSCLK_DIV1;
 327              		.loc 1 146 34 is_stmt 0 view .LVU95
 328 0072 0221     		movs	r1, #2
 329 0074 0391     		str	r1, [sp, #12]
 147:Src/main.c    ****   RCC_ClkInitStruct.APB1CLKDivider = RCC_HCLK_DIV2;
 330              		.loc 1 147 3 is_stmt 1 view .LVU96
 147:Src/main.c    ****   RCC_ClkInitStruct.APB1CLKDivider = RCC_HCLK_DIV2;
 331              		.loc 1 147 35 is_stmt 0 view .LVU97
 332 0076 0023     		movs	r3, #0
 333 0078 0493     		str	r3, [sp, #16]
 148:Src/main.c    ****   RCC_ClkInitStruct.APB2CLKDivider = RCC_HCLK_DIV1;
 334              		.loc 1 148 3 is_stmt 1 view .LVU98
 148:Src/main.c    ****   RCC_ClkInitStruct.APB2CLKDivider = RCC_HCLK_DIV1;
 335              		.loc 1 148 36 is_stmt 0 view .LVU99
 336 007a 4FF48052 		mov	r2, #4096
 337 007e 0592     		str	r2, [sp, #20]
 149:Src/main.c    **** 
 338              		.loc 1 149 3 is_stmt 1 view .LVU100
 149:Src/main.c    **** 
 339              		.loc 1 149 36 is_stmt 0 view .LVU101
 340 0080 0693     		str	r3, [sp, #24]
 151:Src/main.c    ****   {
 341              		.loc 1 151 3 is_stmt 1 view .LVU102
 151:Src/main.c    ****   {
 342              		.loc 1 151 7 is_stmt 0 view .LVU103
 343 0082 02A8     		add	r0, sp, #8
 344 0084 FFF7FEFF 		bl	HAL_RCC_ClockConfig
 345              	.LVL5:
 151:Src/main.c    ****   {
ARM GAS  C:\Users\nicol\AppData\Local\Temp\cchJ9jMi.s 			page 14


 346              		.loc 1 151 6 view .LVU104
 347 0088 20B9     		cbnz	r0, .L12
 155:Src/main.c    **** 
 348              		.loc 1 155 1 view .LVU105
 349 008a 15B0     		add	sp, sp, #84
 350              	.LCFI5:
 351              		.cfi_remember_state
 352              		.cfi_def_cfa_offset 4
 353              		@ sp needed
 354 008c 5DF804FB 		ldr	pc, [sp], #4
 355              	.L11:
 356              	.LCFI6:
 357              		.cfi_restore_state
 139:Src/main.c    ****   }
 358              		.loc 1 139 5 is_stmt 1 view .LVU106
 359 0090 FFF7FEFF 		bl	Error_Handler
 360              	.LVL6:
 361              	.L12:
 153:Src/main.c    ****   }
 362              		.loc 1 153 5 view .LVU107
 363 0094 FFF7FEFF 		bl	Error_Handler
 364              	.LVL7:
 365              	.L14:
 366              		.align	2
 367              	.L13:
 368 0098 00380240 		.word	1073887232
 369 009c 00700040 		.word	1073770496
 370              		.cfi_endproc
 371              	.LFE131:
 373              		.section	.text.main,"ax",%progbits
 374              		.align	1
 375              		.global	main
 376              		.syntax unified
 377              		.thumb
 378              		.thumb_func
 379              		.fpu fpv4-sp-d16
 381              	main:
 382              	.LFB130:
  67:Src/main.c    ****   /* USER CODE BEGIN 1 */
 383              		.loc 1 67 1 view -0
 384              		.cfi_startproc
 385              		@ Volatile: function does not return.
 386              		@ args = 0, pretend = 0, frame = 0
 387              		@ frame_needed = 0, uses_anonymous_args = 0
 388 0000 08B5     		push	{r3, lr}
 389              	.LCFI7:
 390              		.cfi_def_cfa_offset 8
 391              		.cfi_offset 3, -8
 392              		.cfi_offset 14, -4
  75:Src/main.c    **** 
 393              		.loc 1 75 3 view .LVU109
 394 0002 FFF7FEFF 		bl	HAL_Init
 395              	.LVL8:
  82:Src/main.c    **** 
 396              		.loc 1 82 3 view .LVU110
 397 0006 FFF7FEFF 		bl	SystemClock_Config
 398              	.LVL9:
ARM GAS  C:\Users\nicol\AppData\Local\Temp\cchJ9jMi.s 			page 15


  89:Src/main.c    ****   /* USER CODE BEGIN 2 */
 399              		.loc 1 89 3 view .LVU111
 400 000a FFF7FEFF 		bl	MX_GPIO_Init
 401              	.LVL10:
 402 000e 07E0     		b	.L16
 403              	.L19:
 102:Src/main.c    ****       ledFlag = 0;
 404              		.loc 1 102 7 view .LVU112
 102:Src/main.c    ****       ledFlag = 0;
 405              		.loc 1 102 18 is_stmt 0 view .LVU113
 406 0010 064A     		ldr	r2, .L20
 407 0012 5369     		ldr	r3, [r2, #20]
 408 0014 83F02003 		eor	r3, r3, #32
 409 0018 5361     		str	r3, [r2, #20]
 103:Src/main.c    ****     }
 410              		.loc 1 103 7 is_stmt 1 view .LVU114
 103:Src/main.c    ****     }
 411              		.loc 1 103 15 is_stmt 0 view .LVU115
 412 001a 054B     		ldr	r3, .L20+4
 413 001c 0022     		movs	r2, #0
 414 001e 1A60     		str	r2, [r3]
 415              	.L16:
  96:Src/main.c    ****   {
 416              		.loc 1 96 3 is_stmt 1 view .LVU116
 101:Src/main.c    ****       GPIOA->ODR ^= LD2_Pin;
 417              		.loc 1 101 5 view .LVU117
 101:Src/main.c    ****       GPIOA->ODR ^= LD2_Pin;
 418              		.loc 1 101 9 is_stmt 0 view .LVU118
 419 0020 034B     		ldr	r3, .L20+4
 420 0022 1B68     		ldr	r3, [r3]
 101:Src/main.c    ****       GPIOA->ODR ^= LD2_Pin;
 421              		.loc 1 101 8 view .LVU119
 422 0024 002B     		cmp	r3, #0
 423 0026 FBD0     		beq	.L16
 424 0028 F2E7     		b	.L19
 425              	.L21:
 426 002a 00BF     		.align	2
 427              	.L20:
 428 002c 00000240 		.word	1073872896
 429 0030 00000000 		.word	.LANCHOR0
 430              		.cfi_endproc
 431              	.LFE130:
 433              		.global	ledFlag
 434              		.section	.bss.ledFlag,"aw",%nobits
 435              		.align	2
 436              		.set	.LANCHOR0,. + 0
 439              	ledFlag:
 440 0000 00000000 		.space	4
 441              		.text
 442              	.Letext0:
 443              		.file 3 "c:\\program files (x86)\\gnu arm embedded toolchain\\10 2021.07\\arm-none-eabi\\include\\
 444              		.file 4 "c:\\program files (x86)\\gnu arm embedded toolchain\\10 2021.07\\arm-none-eabi\\include\\
 445              		.file 5 "Drivers/CMSIS/Device/ST/STM32F4xx/Include/stm32f410rx.h"
 446              		.file 6 "Drivers/STM32F4xx_HAL_Driver/Inc/stm32f4xx_hal_rcc_ex.h"
 447              		.file 7 "Drivers/STM32F4xx_HAL_Driver/Inc/stm32f4xx_hal_rcc.h"
 448              		.file 8 "Drivers/STM32F4xx_HAL_Driver/Inc/stm32f4xx_hal_gpio.h"
 449              		.file 9 "Drivers/STM32F4xx_HAL_Driver/Inc/stm32f4xx_hal_def.h"
ARM GAS  C:\Users\nicol\AppData\Local\Temp\cchJ9jMi.s 			page 16


 450              		.file 10 "Drivers/STM32F4xx_HAL_Driver/Inc/stm32f4xx_hal.h"
 451              		.file 11 "<built-in>"
ARM GAS  C:\Users\nicol\AppData\Local\Temp\cchJ9jMi.s 			page 17

